; ModuleID = '28/577.c'
source_filename = "28/577.c"
target datalayout = "e-m:e-p270:32:32-p271:32:32-p272:64:64-i64:64-f80:128-n8:16:32:64-S128"
target triple = "x86_64-pc-linux-gnu"

@.str = private unnamed_addr constant [4 x i8] c"%d,\00", align 1
@.str.1 = private unnamed_addr constant [3 x i8] c"%d\00", align 1

; Function Attrs: noinline nounwind uwtable
define dso_local void @main() #0 {
  %1 = alloca [30000 x i8], align 16
  %2 = alloca [300 x i32], align 16
  %3 = alloca i32, align 4
  %4 = alloca i32, align 4
  %5 = alloca i32, align 4
  %6 = alloca i32, align 4
  %7 = bitcast [300 x i32]* %2 to i8*
  call void @llvm.memset.p0i8.i64(i8* align 16 %7, i8 0, i64 1200, i1 false)
  store i32 0, i32* %5, align 4
  store i32 0, i32* %6, align 4
  %8 = getelementptr inbounds [30000 x i8], [30000 x i8]* %1, i64 0, i64 0
  %9 = call i32 (i8*, ...) bitcast (i32 (...)* @gets to i32 (i8*, ...)*)(i8* %8)
  %10 = getelementptr inbounds [30000 x i8], [30000 x i8]* %1, i64 0, i64 0
  %11 = call i64 @strlen(i8* %10) #4
  %12 = trunc i64 %11 to i32
  store i32 %12, i32* %3, align 4
  store i32 0, i32* %4, align 4
  br label %13

13:                                               ; preds = %71, %0
  %14 = load i32, i32* %4, align 4
  %15 = load i32, i32* %3, align 4
  %16 = icmp slt i32 %14, %15
  br i1 %16, label %17, label %74

17:                                               ; preds = %13
  %18 = load i32, i32* %4, align 4
  %19 = sext i32 %18 to i64
  %20 = getelementptr inbounds [30000 x i8], [30000 x i8]* %1, i64 0, i64 %19
  %21 = load i8, i8* %20, align 1
  %22 = sext i8 %21 to i32
  %23 = icmp ne i32 %22, 32
  br i1 %23, label %24, label %36

24:                                               ; preds = %17
  %25 = load i32, i32* %6, align 4
  %26 = icmp eq i32 %25, 0
  br i1 %26, label %27, label %36

27:                                               ; preds = %24
  %28 = load i32, i32* %5, align 4
  %29 = sext i32 %28 to i64
  %30 = getelementptr inbounds [300 x i32], [300 x i32]* %2, i64 0, i64 %29
  %31 = load i32, i32* %30, align 4
  %32 = add nsw i32 %31, 1
  %33 = load i32, i32* %5, align 4
  %34 = sext i32 %33 to i64
  %35 = getelementptr inbounds [300 x i32], [300 x i32]* %2, i64 0, i64 %34
  store i32 %32, i32* %35, align 4
  br label %70

36:                                               ; preds = %24, %17
  %37 = load i32, i32* %4, align 4
  %38 = sext i32 %37 to i64
  %39 = getelementptr inbounds [30000 x i8], [30000 x i8]* %1, i64 0, i64 %38
  %40 = load i8, i8* %39, align 1
  %41 = sext i8 %40 to i32
  %42 = icmp eq i32 %41, 32
  br i1 %42, label %43, label %49

43:                                               ; preds = %36
  %44 = load i32, i32* %6, align 4
  %45 = icmp eq i32 %44, 0
  br i1 %45, label %46, label %49

46:                                               ; preds = %43
  %47 = load i32, i32* %5, align 4
  %48 = add nsw i32 %47, 1
  store i32 %48, i32* %5, align 4
  store i32 1, i32* %6, align 4
  br label %69

49:                                               ; preds = %43, %36
  %50 = load i32, i32* %4, align 4
  %51 = sext i32 %50 to i64
  %52 = getelementptr inbounds [30000 x i8], [30000 x i8]* %1, i64 0, i64 %51
  %53 = load i8, i8* %52, align 1
  %54 = sext i8 %53 to i32
  %55 = icmp ne i32 %54, 32
  br i1 %55, label %56, label %68

56:                                               ; preds = %49
  %57 = load i32, i32* %6, align 4
  %58 = icmp eq i32 %57, 1
  br i1 %58, label %59, label %68

59:                                               ; preds = %56
  store i32 0, i32* %6, align 4
  %60 = load i32, i32* %5, align 4
  %61 = sext i32 %60 to i64
  %62 = getelementptr inbounds [300 x i32], [300 x i32]* %2, i64 0, i64 %61
  %63 = load i32, i32* %62, align 4
  %64 = add nsw i32 %63, 1
  %65 = load i32, i32* %5, align 4
  %66 = sext i32 %65 to i64
  %67 = getelementptr inbounds [300 x i32], [300 x i32]* %2, i64 0, i64 %66
  store i32 %64, i32* %67, align 4
  br label %68

68:                                               ; preds = %59, %56, %49
  br label %69

69:                                               ; preds = %68, %46
  br label %70

70:                                               ; preds = %69, %27
  br label %71

71:                                               ; preds = %70
  %72 = load i32, i32* %4, align 4
  %73 = add nsw i32 %72, 1
  store i32 %73, i32* %4, align 4
  br label %13

74:                                               ; preds = %13
  %75 = load i32, i32* %5, align 4
  %76 = sext i32 %75 to i64
  %77 = getelementptr inbounds [300 x i32], [300 x i32]* %2, i64 0, i64 %76
  %78 = load i32, i32* %77, align 4
  %79 = icmp eq i32 %78, 0
  br i1 %79, label %80, label %83

80:                                               ; preds = %74
  %81 = load i32, i32* %5, align 4
  %82 = sub nsw i32 %81, 1
  store i32 %82, i32* %5, align 4
  br label %83

83:                                               ; preds = %80, %74
  %84 = getelementptr inbounds [30000 x i8], [30000 x i8]* %1, i64 0, i64 0
  %85 = load i8, i8* %84, align 16
  %86 = sext i8 %85 to i32
  %87 = icmp eq i32 %86, 32
  br i1 %87, label %88, label %109

88:                                               ; preds = %83
  store i32 1, i32* %4, align 4
  br label %89

89:                                               ; preds = %100, %88
  %90 = load i32, i32* %4, align 4
  %91 = load i32, i32* %5, align 4
  %92 = sub nsw i32 %91, 1
  %93 = icmp sle i32 %90, %92
  br i1 %93, label %94, label %103

94:                                               ; preds = %89
  %95 = load i32, i32* %4, align 4
  %96 = sext i32 %95 to i64
  %97 = getelementptr inbounds [300 x i32], [300 x i32]* %2, i64 0, i64 %96
  %98 = load i32, i32* %97, align 4
  %99 = call i32 (i8*, ...) @printf(i8* getelementptr inbounds ([4 x i8], [4 x i8]* @.str, i64 0, i64 0), i32 %98)
  br label %100

100:                                              ; preds = %94
  %101 = load i32, i32* %4, align 4
  %102 = add nsw i32 %101, 1
  store i32 %102, i32* %4, align 4
  br label %89

103:                                              ; preds = %89
  %104 = load i32, i32* %5, align 4
  %105 = sext i32 %104 to i64
  %106 = getelementptr inbounds [300 x i32], [300 x i32]* %2, i64 0, i64 %105
  %107 = load i32, i32* %106, align 4
  %108 = call i32 (i8*, ...) @printf(i8* getelementptr inbounds ([3 x i8], [3 x i8]* @.str.1, i64 0, i64 0), i32 %107)
  br label %130

109:                                              ; preds = %83
  store i32 0, i32* %4, align 4
  br label %110

110:                                              ; preds = %121, %109
  %111 = load i32, i32* %4, align 4
  %112 = load i32, i32* %5, align 4
  %113 = sub nsw i32 %112, 1
  %114 = icmp sle i32 %111, %113
  br i1 %114, label %115, label %124

115:                                              ; preds = %110
  %116 = load i32, i32* %4, align 4
  %117 = sext i32 %116 to i64
  %118 = getelementptr inbounds [300 x i32], [300 x i32]* %2, i64 0, i64 %117
  %119 = load i32, i32* %118, align 4
  %120 = call i32 (i8*, ...) @printf(i8* getelementptr inbounds ([4 x i8], [4 x i8]* @.str, i64 0, i64 0), i32 %119)
  br label %121

121:                                              ; preds = %115
  %122 = load i32, i32* %4, align 4
  %123 = add nsw i32 %122, 1
  store i32 %123, i32* %4, align 4
  br label %110

124:                                              ; preds = %110
  %125 = load i32, i32* %5, align 4
  %126 = sext i32 %125 to i64
  %127 = getelementptr inbounds [300 x i32], [300 x i32]* %2, i64 0, i64 %126
  %128 = load i32, i32* %127, align 4
  %129 = call i32 (i8*, ...) @printf(i8* getelementptr inbounds ([3 x i8], [3 x i8]* @.str.1, i64 0, i64 0), i32 %128)
  br label %130

130:                                              ; preds = %124, %103
  ret void
}

; Function Attrs: argmemonly nounwind willreturn
declare void @llvm.memset.p0i8.i64(i8* nocapture writeonly, i8, i64, i1 immarg) #1

declare dso_local i32 @gets(...) #2

; Function Attrs: nounwind readonly
declare dso_local i64 @strlen(i8*) #3

declare dso_local i32 @printf(i8*, ...) #2


!llvm.module.flags = !{!0}
!llvm.ident = !{!1}

!0 = !{i32 1, !"wchar_size", i32 4}
!1 = !{!"clang version 10.0.0-4ubuntu1 "}
