; ModuleID = 'source-C-CXX/27/577.c'
source_filename = "source-C-CXX/27/577.c"
target datalayout = "e-m:e-p270:32:32-p271:32:32-p272:64:64-i64:64-f80:128-n8:16:32:64-S128"
target triple = "x86_64-pc-linux-gnu"

@.str = private unnamed_addr constant [4 x i8] c"%d,\00", align 1
@.str.1 = private unnamed_addr constant [3 x i8] c"%d\00", align 1

; Function Attrs: nounwind sspstrong uwtable
define dso_local void @main() local_unnamed_addr #0 {
  %1 = alloca [30000 x i8], align 16
  %2 = alloca [300 x i32], align 16
  %3 = getelementptr inbounds [30000 x i8], [30000 x i8]* %1, i64 0, i64 0
  call void @llvm.lifetime.start.p0i8(i64 30000, i8* nonnull %3) #6
  %4 = bitcast [300 x i32]* %2 to i8*
  call void @llvm.lifetime.start.p0i8(i64 1200, i8* nonnull %4) #6
  call void @llvm.memset.p0i8.i64(i8* noundef nonnull align 16 dereferenceable(1200) %4, i8 0, i64 1200, i1 false)
  %5 = call i32 (i8*, ...) bitcast (i32 (...)* @gets to i32 (i8*, ...)*)(i8* nonnull %3) #6
  %6 = call i64 @strlen(i8* noundef nonnull %3) #7
  %7 = trunc i64 %6 to i32
  %8 = icmp sgt i32 %7, 0
  br i1 %8, label %9, label %43

9:                                                ; preds = %0
  %10 = and i64 %6, 4294967295
  br label %11

11:                                               ; preds = %9, %38
  %12 = phi i64 [ 0, %9 ], [ %41, %38 ]
  %13 = phi i32 [ 0, %9 ], [ %40, %38 ]
  %14 = phi i32 [ 0, %9 ], [ %39, %38 ]
  %15 = getelementptr inbounds [30000 x i8], [30000 x i8]* %1, i64 0, i64 %12
  %16 = load i8, i8* %15, align 1, !tbaa !5
  %17 = icmp ne i8 %16, 32
  %18 = icmp eq i32 %13, 0
  %19 = select i1 %17, i1 %18, i1 false
  br i1 %19, label %20, label %25

20:                                               ; preds = %11
  %21 = sext i32 %14 to i64
  %22 = getelementptr inbounds [300 x i32], [300 x i32]* %2, i64 0, i64 %21
  %23 = load i32, i32* %22, align 4, !tbaa !8
  %24 = add nsw i32 %23, 1
  store i32 %24, i32* %22, align 4, !tbaa !8
  br label %38

25:                                               ; preds = %11
  %26 = icmp eq i8 %16, 32
  %27 = select i1 %26, i1 %18, i1 false
  br i1 %27, label %28, label %30

28:                                               ; preds = %25
  %29 = add nsw i32 %14, 1
  br label %38

30:                                               ; preds = %25
  %31 = icmp eq i32 %13, 1
  %32 = select i1 %17, i1 %31, i1 false
  br i1 %32, label %33, label %38

33:                                               ; preds = %30
  %34 = sext i32 %14 to i64
  %35 = getelementptr inbounds [300 x i32], [300 x i32]* %2, i64 0, i64 %34
  %36 = load i32, i32* %35, align 4, !tbaa !8
  %37 = add nsw i32 %36, 1
  store i32 %37, i32* %35, align 4, !tbaa !8
  br label %38

38:                                               ; preds = %20, %30, %33, %28
  %39 = phi i32 [ %14, %20 ], [ %29, %28 ], [ %14, %33 ], [ %14, %30 ]
  %40 = phi i32 [ 0, %20 ], [ 1, %28 ], [ 0, %33 ], [ %13, %30 ]
  %41 = add nuw nsw i64 %12, 1
  %42 = icmp eq i64 %41, %10
  br i1 %42, label %43, label %11, !llvm.loop !10

43:                                               ; preds = %38, %0
  %44 = phi i32 [ 0, %0 ], [ %39, %38 ]
  %45 = sext i32 %44 to i64
  %46 = getelementptr inbounds [300 x i32], [300 x i32]* %2, i64 0, i64 %45
  %47 = load i32, i32* %46, align 4, !tbaa !8
  %48 = icmp eq i32 %47, 0
  %49 = sext i1 %48 to i32
  %50 = add i32 %44, %49
  %51 = load i8, i8* %3, align 16, !tbaa !5
  %52 = icmp eq i8 %51, 32
  br i1 %52, label %57, label %53

53:                                               ; preds = %43
  %54 = icmp sgt i32 %50, 0
  br i1 %54, label %55, label %75

55:                                               ; preds = %53
  %56 = zext i32 %50 to i64
  br label %68

57:                                               ; preds = %43
  %58 = icmp sgt i32 %50, 1
  br i1 %58, label %59, label %75

59:                                               ; preds = %57
  %60 = zext i32 %50 to i64
  br label %61

61:                                               ; preds = %59, %61
  %62 = phi i64 [ 1, %59 ], [ %66, %61 ]
  %63 = getelementptr inbounds [300 x i32], [300 x i32]* %2, i64 0, i64 %62
  %64 = load i32, i32* %63, align 4, !tbaa !8
  %65 = call i32 (i8*, ...) @printf(i8* nonnull dereferenceable(1) getelementptr inbounds ([4 x i8], [4 x i8]* @.str, i64 0, i64 0), i32 %64)
  %66 = add nuw nsw i64 %62, 1
  %67 = icmp eq i64 %66, %60
  br i1 %67, label %75, label %61, !llvm.loop !12

68:                                               ; preds = %55, %68
  %69 = phi i64 [ 0, %55 ], [ %73, %68 ]
  %70 = getelementptr inbounds [300 x i32], [300 x i32]* %2, i64 0, i64 %69
  %71 = load i32, i32* %70, align 4, !tbaa !8
  %72 = call i32 (i8*, ...) @printf(i8* nonnull dereferenceable(1) getelementptr inbounds ([4 x i8], [4 x i8]* @.str, i64 0, i64 0), i32 %71)
  %73 = add nuw nsw i64 %69, 1
  %74 = icmp eq i64 %73, %56
  br i1 %74, label %75, label %68, !llvm.loop !13

75:                                               ; preds = %68, %61, %53, %57
  %76 = sext i32 %50 to i64
  %77 = getelementptr inbounds [300 x i32], [300 x i32]* %2, i64 0, i64 %76
  %78 = load i32, i32* %77, align 4, !tbaa !8
  %79 = call i32 (i8*, ...) @printf(i8* nonnull dereferenceable(1) getelementptr inbounds ([3 x i8], [3 x i8]* @.str.1, i64 0, i64 0), i32 %78)
  call void @llvm.lifetime.end.p0i8(i64 1200, i8* nonnull %4) #6
  call void @llvm.lifetime.end.p0i8(i64 30000, i8* nonnull %3) #6
  ret void
}

; Function Attrs: argmemonly mustprogress nofree nosync nounwind willreturn
declare void @llvm.lifetime.start.p0i8(i64 immarg, i8* nocapture) #1

; Function Attrs: argmemonly mustprogress nofree nounwind willreturn writeonly
declare void @llvm.memset.p0i8.i64(i8* nocapture writeonly, i8, i64, i1 immarg) #2

declare i32 @gets(...) local_unnamed_addr #3

; Function Attrs: argmemonly mustprogress nofree nounwind readonly willreturn
declare i64 @strlen(i8* nocapture) local_unnamed_addr #4

; Function Attrs: nofree nounwind
declare noundef i32 @printf(i8* nocapture noundef readonly, ...) local_unnamed_addr #5

; Function Attrs: argmemonly mustprogress nofree nosync nounwind willreturn
declare void @llvm.lifetime.end.p0i8(i64 immarg, i8* nocapture) #1


!llvm.module.flags = !{!0, !1, !2, !3}
!llvm.ident = !{!4}

!0 = !{i32 1, !"wchar_size", i32 4}
!1 = !{i32 7, !"PIC Level", i32 2}
!2 = !{i32 7, !"PIE Level", i32 2}
!3 = !{i32 7, !"uwtable", i32 1}
!4 = !{!"clang version 13.0.0"}
!5 = !{!6, !6, i64 0}
!6 = !{!"omnipotent char", !7, i64 0}
!7 = !{!"Simple C/C++ TBAA"}
!8 = !{!9, !9, i64 0}
!9 = !{!"int", !6, i64 0}
!10 = distinct !{!10, !11}
!11 = !{!"llvm.loop.mustprogress"}
!12 = distinct !{!12, !11}
!13 = distinct !{!13, !11}
